
/home/romeo/ysyx-workbench/am-kernels/tests/cpu-tests/build/add-riscv32-nemu.elf:     file format elf32-littleriscv


Disassembly of section .text:

a0000000 <_start>:
a0000000:	00000413          	li	s0,0
a0000004:	00009117          	auipc	sp,0x9
a0000008:	ffc10113          	addi	sp,sp,-4 # a0009000 <_end>
a000000c:	0fc000ef          	jal	a0000108 <_trm_init>

a0000010 <check>:
a0000010:	00050463          	beqz	a0,a0000018 <check+0x8>
a0000014:	00008067          	ret
a0000018:	ff010113          	addi	sp,sp,-16
a000001c:	00100513          	li	a0,1
a0000020:	00112623          	sw	ra,12(sp)
a0000024:	0d8000ef          	jal	a00000fc <halt>

a0000028 <main>:
a0000028:	fd010113          	addi	sp,sp,-48
a000002c:	01712623          	sw	s7,12(sp)
a0000030:	00000b97          	auipc	s7,0x0
a0000034:	1fcb8b93          	addi	s7,s7,508 # a000022c <test_data>
a0000038:	01312e23          	sw	s3,28(sp)
a000003c:	01412c23          	sw	s4,24(sp)
a0000040:	01512a23          	sw	s5,20(sp)
a0000044:	01612823          	sw	s6,16(sp)
a0000048:	01812423          	sw	s8,8(sp)
a000004c:	02112623          	sw	ra,44(sp)
a0000050:	02812423          	sw	s0,40(sp)
a0000054:	02912223          	sw	s1,36(sp)
a0000058:	03212023          	sw	s2,32(sp)
a000005c:	00000b17          	auipc	s6,0x0
a0000060:	0d0b0b13          	addi	s6,s6,208 # a000012c <ans>
a0000064:	000b8a93          	mv	s5,s7
a0000068:	00000a13          	li	s4,0
a000006c:	00000997          	auipc	s3,0x0
a0000070:	1e098993          	addi	s3,s3,480 # a000024c <_bss_start>
a0000074:	04000c13          	li	s8,64
a0000078:	000aa903          	lw	s2,0(s5)
a000007c:	000b0493          	mv	s1,s6
a0000080:	000b8413          	mv	s0,s7
a0000084:	00042503          	lw	a0,0(s0)
a0000088:	0004a783          	lw	a5,0(s1)
a000008c:	00440413          	addi	s0,s0,4
a0000090:	00a90533          	add	a0,s2,a0
a0000094:	40f50533          	sub	a0,a0,a5
a0000098:	00153513          	seqz	a0,a0
a000009c:	f75ff0ef          	jal	a0000010 <check>
a00000a0:	00448493          	addi	s1,s1,4
a00000a4:	fe8990e3          	bne	s3,s0,a0000084 <main+0x5c>
a00000a8:	00100513          	li	a0,1
a00000ac:	008a0a13          	addi	s4,s4,8
a00000b0:	f61ff0ef          	jal	a0000010 <check>
a00000b4:	004a8a93          	addi	s5,s5,4
a00000b8:	020b0b13          	addi	s6,s6,32
a00000bc:	fb8a1ee3          	bne	s4,s8,a0000078 <main+0x50>
a00000c0:	00100513          	li	a0,1
a00000c4:	f4dff0ef          	jal	a0000010 <check>
a00000c8:	02c12083          	lw	ra,44(sp)
a00000cc:	02812403          	lw	s0,40(sp)
a00000d0:	02412483          	lw	s1,36(sp)
a00000d4:	02012903          	lw	s2,32(sp)
a00000d8:	01c12983          	lw	s3,28(sp)
a00000dc:	01812a03          	lw	s4,24(sp)
a00000e0:	01412a83          	lw	s5,20(sp)
a00000e4:	01012b03          	lw	s6,16(sp)
a00000e8:	00c12b83          	lw	s7,12(sp)
a00000ec:	00812c03          	lw	s8,8(sp)
a00000f0:	00000513          	li	a0,0
a00000f4:	03010113          	addi	sp,sp,48
a00000f8:	00008067          	ret

a00000fc <halt>:
a00000fc:	00050513          	mv	a0,a0
a0000100:	00100073          	ebreak
a0000104:	0000006f          	j	a0000104 <halt+0x8>

a0000108 <_trm_init>:
a0000108:	ff010113          	addi	sp,sp,-16
a000010c:	00000517          	auipc	a0,0x0
a0000110:	01c50513          	addi	a0,a0,28 # a0000128 <_etext>
a0000114:	00112623          	sw	ra,12(sp)
a0000118:	f11ff0ef          	jal	a0000028 <main>
a000011c:	00050513          	mv	a0,a0
a0000120:	00100073          	ebreak
a0000124:	0000006f          	j	a0000124 <_trm_init+0x1c>
