
/home/romeo/ysyx-workbench/am-kernels/tests/cpu-tests/build/bubble-sort-riscv32-nemu.elf:     file format elf32-littleriscv


Disassembly of section .text:

a0000000 <_start>:
a0000000:	00000413          	li	s0,0
a0000004:	00009117          	auipc	sp,0x9
a0000008:	ffc10113          	addi	sp,sp,-4 # a0009000 <_end>
a000000c:	134000ef          	jal	a0000140 <_trm_init>

a0000010 <check>:
a0000010:	00050463          	beqz	a0,a0000018 <check+0x8>
a0000014:	00008067          	ret
a0000018:	ff010113          	addi	sp,sp,-16
a000001c:	00100513          	li	a0,1
a0000020:	00112623          	sw	ra,12(sp)
a0000024:	110000ef          	jal	a0000134 <halt>

a0000028 <bubble_sort>:
a0000028:	ff010113          	addi	sp,sp,-16
a000002c:	00812623          	sw	s0,12(sp)
a0000030:	00912423          	sw	s1,8(sp)
a0000034:	00000293          	li	t0,0
a0000038:	01400313          	li	t1,20

a000003c <outer_loop>:
a000003c:	405303b3          	sub	t2,t1,t0
a0000040:	00000413          	li	s0,0

a0000044 <inner_loop>:
a0000044:	02745863          	bge	s0,t2,a0000074 <end_inner>
a0000048:	00241493          	slli	s1,s0,0x2
a000004c:	00000517          	auipc	a0,0x0
a0000050:	11850513          	addi	a0,a0,280 # a0000164 <a>
a0000054:	009505b3          	add	a1,a0,s1
a0000058:	0005a603          	lw	a2,0(a1)
a000005c:	0045a683          	lw	a3,4(a1)
a0000060:	00d64663          	blt	a2,a3,a000006c <no_swap>
a0000064:	00d5a023          	sw	a3,0(a1)
a0000068:	00c5a223          	sw	a2,4(a1)

a000006c <no_swap>:
a000006c:	00140413          	addi	s0,s0,1
a0000070:	fd5ff06f          	j	a0000044 <inner_loop>

a0000074 <end_inner>:
a0000074:	00128293          	addi	t0,t0,1
a0000078:	01400313          	li	t1,20
a000007c:	fc62c0e3          	blt	t0,t1,a000003c <outer_loop>
a0000080:	00c12403          	lw	s0,12(sp)
a0000084:	00812483          	lw	s1,8(sp)
a0000088:	01010113          	addi	sp,sp,16
a000008c:	00008067          	ret

a0000090 <main>:
a0000090:	fe010113          	addi	sp,sp,-32
a0000094:	00912a23          	sw	s1,20(sp)
a0000098:	00000497          	auipc	s1,0x0
a000009c:	0cc48493          	addi	s1,s1,204 # a0000164 <a>
a00000a0:	00812c23          	sw	s0,24(sp)
a00000a4:	01212823          	sw	s2,16(sp)
a00000a8:	01312623          	sw	s3,12(sp)
a00000ac:	00112e23          	sw	ra,28(sp)
a00000b0:	00048913          	mv	s2,s1
a00000b4:	f75ff0ef          	jal	a0000028 <bubble_sort>
a00000b8:	00000413          	li	s0,0
a00000bc:	01400993          	li	s3,20
a00000c0:	00092503          	lw	a0,0(s2)
a00000c4:	00490913          	addi	s2,s2,4
a00000c8:	40850533          	sub	a0,a0,s0
a00000cc:	00153513          	seqz	a0,a0
a00000d0:	00140413          	addi	s0,s0,1
a00000d4:	f3dff0ef          	jal	a0000010 <check>
a00000d8:	ff3414e3          	bne	s0,s3,a00000c0 <main+0x30>
a00000dc:	00100513          	li	a0,1
a00000e0:	f31ff0ef          	jal	a0000010 <check>
a00000e4:	00000413          	li	s0,0
a00000e8:	f41ff0ef          	jal	a0000028 <bubble_sort>
a00000ec:	01400913          	li	s2,20
a00000f0:	0004a503          	lw	a0,0(s1)
a00000f4:	00448493          	addi	s1,s1,4
a00000f8:	40850533          	sub	a0,a0,s0
a00000fc:	00153513          	seqz	a0,a0
a0000100:	00140413          	addi	s0,s0,1
a0000104:	f0dff0ef          	jal	a0000010 <check>
a0000108:	ff2414e3          	bne	s0,s2,a00000f0 <main+0x60>
a000010c:	00100513          	li	a0,1
a0000110:	f01ff0ef          	jal	a0000010 <check>
a0000114:	01c12083          	lw	ra,28(sp)
a0000118:	01812403          	lw	s0,24(sp)
a000011c:	01412483          	lw	s1,20(sp)
a0000120:	01012903          	lw	s2,16(sp)
a0000124:	00c12983          	lw	s3,12(sp)
a0000128:	00000513          	li	a0,0
a000012c:	02010113          	addi	sp,sp,32
a0000130:	00008067          	ret

a0000134 <halt>:
a0000134:	00050513          	mv	a0,a0
a0000138:	00100073          	ebreak
a000013c:	0000006f          	j	a000013c <halt+0x8>

a0000140 <_trm_init>:
a0000140:	ff010113          	addi	sp,sp,-16
a0000144:	00000517          	auipc	a0,0x0
a0000148:	01c50513          	addi	a0,a0,28 # a0000160 <_etext>
a000014c:	00112623          	sw	ra,12(sp)
a0000150:	f41ff0ef          	jal	a0000090 <main>
a0000154:	00050513          	mv	a0,a0
a0000158:	00100073          	ebreak
a000015c:	0000006f          	j	a000015c <_trm_init+0x1c>
