
/home/romeo/ysyx-workbench/am-kernels/tests/cpu-tests/build/fact-riscv32-nemu.elf:     file format elf32-littleriscv


Disassembly of section .text:

a0000000 <_start>:
a0000000:	00000413          	li	s0,0
a0000004:	00009117          	auipc	sp,0x9
a0000008:	ffc10113          	addi	sp,sp,-4 # a0009000 <_end>
a000000c:	0e8000ef          	jal	a00000f4 <_trm_init>

a0000010 <check>:
a0000010:	00050463          	beqz	a0,a0000018 <check+0x8>
a0000014:	00008067          	ret
a0000018:	ff010113          	addi	sp,sp,-16
a000001c:	00100513          	li	a0,1
a0000020:	00112623          	sw	ra,12(sp)
a0000024:	0c4000ef          	jal	a00000e8 <halt>

a0000028 <main>:
a0000028:	fe010113          	addi	sp,sp,-32
a000002c:	00812c23          	sw	s0,24(sp)
a0000030:	00912a23          	sw	s1,20(sp)
a0000034:	01212823          	sw	s2,16(sp)
a0000038:	01312623          	sw	s3,12(sp)
a000003c:	01412423          	sw	s4,8(sp)
a0000040:	00112e23          	sw	ra,28(sp)
a0000044:	00000997          	auipc	s3,0x0
a0000048:	10898993          	addi	s3,s3,264 # a000014c <f>
a000004c:	00000917          	auipc	s2,0x0
a0000050:	0cc90913          	addi	s2,s2,204 # a0000118 <ans>
a0000054:	00000493          	li	s1,0
a0000058:	00100413          	li	s0,1
a000005c:	00d00a13          	li	s4,13
a0000060:	06945263          	bge	s0,s1,a00000c4 <main+0x9c>
a0000064:	00048793          	mv	a5,s1
a0000068:	00100713          	li	a4,1
a000006c:	00078693          	mv	a3,a5
a0000070:	fff78793          	addi	a5,a5,-1
a0000074:	02d70733          	mul	a4,a4,a3
a0000078:	fe879ae3          	bne	a5,s0,a000006c <main+0x44>
a000007c:	00092503          	lw	a0,0(s2)
a0000080:	00e9a023          	sw	a4,0(s3)
a0000084:	00148493          	addi	s1,s1,1
a0000088:	40e50533          	sub	a0,a0,a4
a000008c:	00153513          	seqz	a0,a0
a0000090:	f81ff0ef          	jal	a0000010 <check>
a0000094:	00498993          	addi	s3,s3,4
a0000098:	00490913          	addi	s2,s2,4
a000009c:	fd4492e3          	bne	s1,s4,a0000060 <main+0x38>
a00000a0:	01c12083          	lw	ra,28(sp)
a00000a4:	01812403          	lw	s0,24(sp)
a00000a8:	01412483          	lw	s1,20(sp)
a00000ac:	01012903          	lw	s2,16(sp)
a00000b0:	00c12983          	lw	s3,12(sp)
a00000b4:	00812a03          	lw	s4,8(sp)
a00000b8:	00000513          	li	a0,0
a00000bc:	02010113          	addi	sp,sp,32
a00000c0:	00008067          	ret
a00000c4:	00092503          	lw	a0,0(s2)
a00000c8:	0089a023          	sw	s0,0(s3)
a00000cc:	00148493          	addi	s1,s1,1
a00000d0:	fff50513          	addi	a0,a0,-1
a00000d4:	00153513          	seqz	a0,a0
a00000d8:	f39ff0ef          	jal	a0000010 <check>
a00000dc:	00498993          	addi	s3,s3,4
a00000e0:	00490913          	addi	s2,s2,4
a00000e4:	f7dff06f          	j	a0000060 <main+0x38>

a00000e8 <halt>:
a00000e8:	00050513          	mv	a0,a0
a00000ec:	00100073          	ebreak
a00000f0:	0000006f          	j	a00000f0 <halt+0x8>

a00000f4 <_trm_init>:
a00000f4:	ff010113          	addi	sp,sp,-16
a00000f8:	00000517          	auipc	a0,0x0
a00000fc:	01c50513          	addi	a0,a0,28 # a0000114 <_etext>
a0000100:	00112623          	sw	ra,12(sp)
a0000104:	f25ff0ef          	jal	a0000028 <main>
a0000108:	00050513          	mv	a0,a0
a000010c:	00100073          	ebreak
a0000110:	0000006f          	j	a0000110 <_trm_init+0x1c>
