
/home/romeo/ysyx-workbench/am-kernels/tests/cpu-tests/build/goldbach-riscv32-nemu.elf:     file format elf32-littleriscv


Disassembly of section .text:

a0000000 <_start>:
a0000000:	00000413          	li	s0,0
a0000004:	00009117          	auipc	sp,0x9
a0000008:	ffc10113          	addi	sp,sp,-4 # a0009000 <_end>
a000000c:	114000ef          	jal	a0000120 <_trm_init>

a0000010 <check>:
a0000010:	00050463          	beqz	a0,a0000018 <check+0x8>
a0000014:	00008067          	ret
a0000018:	ff010113          	addi	sp,sp,-16
a000001c:	00100513          	li	a0,1
a0000020:	00112623          	sw	ra,12(sp)
a0000024:	0f0000ef          	jal	a0000114 <halt>

a0000028 <goldbach>:
a0000028:	00200793          	li	a5,2
a000002c:	00050813          	mv	a6,a0
a0000030:	08a7d463          	bge	a5,a0,a00000b8 <goldbach+0x90>
a0000034:	ffe50613          	addi	a2,a0,-2
a0000038:	00100793          	li	a5,1
a000003c:	00000513          	li	a0,0
a0000040:	06f60a63          	beq	a2,a5,a00000b4 <goldbach+0x8c>
a0000044:	00200693          	li	a3,2
a0000048:	00200313          	li	t1,2
a000004c:	00100893          	li	a7,1
a0000050:	06660863          	beq	a2,t1,a00000c0 <goldbach+0x98>
a0000054:	00167513          	andi	a0,a2,1
a0000058:	00200793          	li	a5,2
a000005c:	00051863          	bnez	a0,a000006c <goldbach+0x44>
a0000060:	01c0006f          	j	a000007c <goldbach+0x54>
a0000064:	02f66733          	rem	a4,a2,a5
a0000068:	00070a63          	beqz	a4,a000007c <goldbach+0x54>
a000006c:	00178793          	addi	a5,a5,1
a0000070:	fec79ae3          	bne	a5,a2,a0000064 <goldbach+0x3c>
a0000074:	00008067          	ret
a0000078:	fd161ce3          	bne	a2,a7,a0000050 <goldbach+0x28>
a000007c:	00068593          	mv	a1,a3
a0000080:	00168693          	addi	a3,a3,1
a0000084:	fff60613          	addi	a2,a2,-1
a0000088:	02d80863          	beq	a6,a3,a00000b8 <goldbach+0x90>
a000008c:	0016f793          	andi	a5,a3,1
a0000090:	fe0786e3          	beqz	a5,a000007c <goldbach+0x54>
a0000094:	00200793          	li	a5,2
a0000098:	00c0006f          	j	a00000a4 <goldbach+0x7c>
a000009c:	02f6e733          	rem	a4,a3,a5
a00000a0:	fc070ee3          	beqz	a4,a000007c <goldbach+0x54>
a00000a4:	00078713          	mv	a4,a5
a00000a8:	00178793          	addi	a5,a5,1
a00000ac:	feb718e3          	bne	a4,a1,a000009c <goldbach+0x74>
a00000b0:	fc9ff06f          	j	a0000078 <goldbach+0x50>
a00000b4:	00008067          	ret
a00000b8:	00000513          	li	a0,0
a00000bc:	00008067          	ret
a00000c0:	00100513          	li	a0,1
a00000c4:	00008067          	ret

a00000c8 <main>:
a00000c8:	ff010113          	addi	sp,sp,-16
a00000cc:	00812423          	sw	s0,8(sp)
a00000d0:	00912223          	sw	s1,4(sp)
a00000d4:	00112623          	sw	ra,12(sp)
a00000d8:	00400413          	li	s0,4
a00000dc:	02000493          	li	s1,32
a00000e0:	00040513          	mv	a0,s0
a00000e4:	f45ff0ef          	jal	a0000028 <goldbach>
a00000e8:	fff50513          	addi	a0,a0,-1
a00000ec:	00153513          	seqz	a0,a0
a00000f0:	00240413          	addi	s0,s0,2
a00000f4:	f1dff0ef          	jal	a0000010 <check>
a00000f8:	fe9414e3          	bne	s0,s1,a00000e0 <main+0x18>
a00000fc:	00c12083          	lw	ra,12(sp)
a0000100:	00812403          	lw	s0,8(sp)
a0000104:	00412483          	lw	s1,4(sp)
a0000108:	00000513          	li	a0,0
a000010c:	01010113          	addi	sp,sp,16
a0000110:	00008067          	ret

a0000114 <halt>:
a0000114:	00050513          	mv	a0,a0
a0000118:	00100073          	ebreak
a000011c:	0000006f          	j	a000011c <halt+0x8>

a0000120 <_trm_init>:
a0000120:	ff010113          	addi	sp,sp,-16
a0000124:	00000517          	auipc	a0,0x0
a0000128:	01c50513          	addi	a0,a0,28 # a0000140 <_etext>
a000012c:	00112623          	sw	ra,12(sp)
a0000130:	f99ff0ef          	jal	a00000c8 <main>
a0000134:	00050513          	mv	a0,a0
a0000138:	00100073          	ebreak
a000013c:	0000006f          	j	a000013c <_trm_init+0x1c>
