
/home/romeo/ysyx-workbench/am-kernels/tests/cpu-tests/build/min3-riscv32-nemu.elf:     file format elf32-littleriscv


Disassembly of section .text:

a0000000 <_start>:
a0000000:	00000413          	li	s0,0
a0000004:	00009117          	auipc	sp,0x9
a0000008:	ffc10113          	addi	sp,sp,-4 # a0009000 <_end>
a000000c:	14c000ef          	jal	a0000158 <_trm_init>

a0000010 <check>:
a0000010:	00050463          	beqz	a0,a0000018 <check+0x8>
a0000014:	00008067          	ret
a0000018:	ff010113          	addi	sp,sp,-16
a000001c:	00100513          	li	a0,1
a0000020:	00112623          	sw	ra,12(sp)
a0000024:	128000ef          	jal	a000014c <halt>

a0000028 <main>:
a0000028:	fc010113          	addi	sp,sp,-64
a000002c:	03612023          	sw	s6,32(sp)
a0000030:	00000b17          	auipc	s6,0x0
a0000034:	24cb0b13          	addi	s6,s6,588 # a000027c <test_data>
a0000038:	02912a23          	sw	s1,52(sp)
a000003c:	03312623          	sw	s3,44(sp)
a0000040:	03512223          	sw	s5,36(sp)
a0000044:	01712e23          	sw	s7,28(sp)
a0000048:	01812c23          	sw	s8,24(sp)
a000004c:	02112e23          	sw	ra,60(sp)
a0000050:	02812c23          	sw	s0,56(sp)
a0000054:	03212823          	sw	s2,48(sp)
a0000058:	03412423          	sw	s4,40(sp)
a000005c:	01912a23          	sw	s9,20(sp)
a0000060:	01a12823          	sw	s10,16(sp)
a0000064:	01b12623          	sw	s11,12(sp)
a0000068:	00000c17          	auipc	s8,0x0
a000006c:	114c0c13          	addi	s8,s8,276 # a000017c <ans>
a0000070:	000b0a93          	mv	s5,s6
a0000074:	000b0b93          	mv	s7,s6
a0000078:	01000993          	li	s3,16
a000007c:	00000497          	auipc	s1,0x0
a0000080:	21048493          	addi	s1,s1,528 # a000028c <_bss_start>
a0000084:	000baa03          	lw	s4,0(s7)
a0000088:	ff098413          	addi	s0,s3,-16
a000008c:	000c0913          	mv	s2,s8
a0000090:	008a87b3          	add	a5,s5,s0
a0000094:	0007ac83          	lw	s9,0(a5)
a0000098:	019a5463          	bge	s4,s9,a00000a0 <main+0x78>
a000009c:	000a0c93          	mv	s9,s4
a00000a0:	00090d93          	mv	s11,s2
a00000a4:	000b0d13          	mv	s10,s6
a00000a8:	000d2503          	lw	a0,0(s10)
a00000ac:	00acd463          	bge	s9,a0,a00000b4 <main+0x8c>
a00000b0:	000c8513          	mv	a0,s9
a00000b4:	000da703          	lw	a4,0(s11)
a00000b8:	004d0d13          	addi	s10,s10,4
a00000bc:	004d8d93          	addi	s11,s11,4
a00000c0:	40e50533          	sub	a0,a0,a4
a00000c4:	00153513          	seqz	a0,a0
a00000c8:	f49ff0ef          	jal	a0000010 <check>
a00000cc:	fda49ee3          	bne	s1,s10,a00000a8 <main+0x80>
a00000d0:	00100513          	li	a0,1
a00000d4:	00440413          	addi	s0,s0,4
a00000d8:	f39ff0ef          	jal	a0000010 <check>
a00000dc:	01090913          	addi	s2,s2,16
a00000e0:	fb3418e3          	bne	s0,s3,a0000090 <main+0x68>
a00000e4:	00100513          	li	a0,1
a00000e8:	f29ff0ef          	jal	a0000010 <check>
a00000ec:	01040993          	addi	s3,s0,16
a00000f0:	05000793          	li	a5,80
a00000f4:	004b8b93          	addi	s7,s7,4
a00000f8:	040c0c13          	addi	s8,s8,64
a00000fc:	ff0a8a93          	addi	s5,s5,-16
a0000100:	f8f992e3          	bne	s3,a5,a0000084 <main+0x5c>
a0000104:	00100513          	li	a0,1
a0000108:	f09ff0ef          	jal	a0000010 <check>
a000010c:	03c12083          	lw	ra,60(sp)
a0000110:	03812403          	lw	s0,56(sp)
a0000114:	03412483          	lw	s1,52(sp)
a0000118:	03012903          	lw	s2,48(sp)
a000011c:	02c12983          	lw	s3,44(sp)
a0000120:	02812a03          	lw	s4,40(sp)
a0000124:	02412a83          	lw	s5,36(sp)
a0000128:	02012b03          	lw	s6,32(sp)
a000012c:	01c12b83          	lw	s7,28(sp)
a0000130:	01812c03          	lw	s8,24(sp)
a0000134:	01412c83          	lw	s9,20(sp)
a0000138:	01012d03          	lw	s10,16(sp)
a000013c:	00c12d83          	lw	s11,12(sp)
a0000140:	00000513          	li	a0,0
a0000144:	04010113          	addi	sp,sp,64
a0000148:	00008067          	ret

a000014c <halt>:
a000014c:	00050513          	mv	a0,a0
a0000150:	00100073          	ebreak
a0000154:	0000006f          	j	a0000154 <halt+0x8>

a0000158 <_trm_init>:
a0000158:	ff010113          	addi	sp,sp,-16
a000015c:	00000517          	auipc	a0,0x0
a0000160:	01c50513          	addi	a0,a0,28 # a0000178 <_etext>
a0000164:	00112623          	sw	ra,12(sp)
a0000168:	ec1ff0ef          	jal	a0000028 <main>
a000016c:	00050513          	mv	a0,a0
a0000170:	00100073          	ebreak
a0000174:	0000006f          	j	a0000174 <_trm_init+0x1c>
