
/home/romeo/ysyx-workbench/am-kernels/tests/cpu-tests/build/quick-sort-riscv32-nemu.elf:     file format elf32-littleriscv


Disassembly of section .text:

a0000000 <_start>:
a0000000:	00000413          	li	s0,0
a0000004:	00009117          	auipc	sp,0x9
a0000008:	ffc10113          	addi	sp,sp,-4 # a0009000 <_end>
a000000c:	3ac000ef          	jal	a00003b8 <_trm_init>

a0000010 <check>:
a0000010:	00050463          	beqz	a0,a0000018 <check+0x8>
a0000014:	00008067          	ret
a0000018:	ff010113          	addi	sp,sp,-16
a000001c:	00100513          	li	a0,1
a0000020:	00112623          	sw	ra,12(sp)
a0000024:	388000ef          	jal	a00003ac <halt>

a0000028 <partition>:
a0000028:	00259693          	slli	a3,a1,0x2
a000002c:	00d506b3          	add	a3,a0,a3
a0000030:	00050893          	mv	a7,a0
a0000034:	0006a803          	lw	a6,0(a3)
a0000038:	00060513          	mv	a0,a2
a000003c:	06c5dc63          	bge	a1,a2,a00000b4 <partition+0x8c>
a0000040:	00261793          	slli	a5,a2,0x2
a0000044:	00f887b3          	add	a5,a7,a5
a0000048:	0007a783          	lw	a5,0(a5)
a000004c:	fff50613          	addi	a2,a0,-1
a0000050:	00261613          	slli	a2,a2,0x2
a0000054:	00c88633          	add	a2,a7,a2
a0000058:	0140006f          	j	a000006c <partition+0x44>
a000005c:	fff50513          	addi	a0,a0,-1
a0000060:	00472783          	lw	a5,4(a4)
a0000064:	06b50863          	beq	a0,a1,a00000d4 <partition+0xac>
a0000068:	00070613          	mv	a2,a4
a000006c:	ffc60713          	addi	a4,a2,-4
a0000070:	fef846e3          	blt	a6,a5,a000005c <partition+0x34>
a0000074:	00259693          	slli	a3,a1,0x2
a0000078:	00d886b3          	add	a3,a7,a3
a000007c:	00251313          	slli	t1,a0,0x2
a0000080:	00f6a023          	sw	a5,0(a3)
a0000084:	00688633          	add	a2,a7,t1
a0000088:	04a5de63          	bge	a1,a0,a00000e4 <partition+0xbc>
a000008c:	00068713          	mv	a4,a3
a0000090:	00c0006f          	j	a000009c <partition+0x74>
a0000094:	00158593          	addi	a1,a1,1
a0000098:	02a58463          	beq	a1,a0,a00000c0 <partition+0x98>
a000009c:	00072783          	lw	a5,0(a4)
a00000a0:	00070693          	mv	a3,a4
a00000a4:	00470713          	addi	a4,a4,4
a00000a8:	fef856e3          	bge	a6,a5,a0000094 <partition+0x6c>
a00000ac:	00f62023          	sw	a5,0(a2)
a00000b0:	f8a5cee3          	blt	a1,a0,a000004c <partition+0x24>
a00000b4:	00058513          	mv	a0,a1
a00000b8:	0106a023          	sw	a6,0(a3)
a00000bc:	00008067          	ret
a00000c0:	006886b3          	add	a3,a7,t1
a00000c4:	0006a783          	lw	a5,0(a3)
a00000c8:	00f62023          	sw	a5,0(a2)
a00000cc:	0106a023          	sw	a6,0(a3)
a00000d0:	00008067          	ret
a00000d4:	00251693          	slli	a3,a0,0x2
a00000d8:	00d886b3          	add	a3,a7,a3
a00000dc:	00f6a023          	sw	a5,0(a3)
a00000e0:	fe9ff06f          	j	a00000c8 <partition+0xa0>
a00000e4:	00058513          	mv	a0,a1
a00000e8:	fe1ff06f          	j	a00000c8 <partition+0xa0>

a00000ec <quick_sort>:
a00000ec:	1ec5dc63          	bge	a1,a2,a00002e4 <quick_sort+0x1f8>
a00000f0:	fa010113          	addi	sp,sp,-96
a00000f4:	04812c23          	sw	s0,88(sp)
a00000f8:	05612023          	sw	s6,64(sp)
a00000fc:	03812c23          	sw	s8,56(sp)
a0000100:	04112e23          	sw	ra,92(sp)
a0000104:	03912a23          	sw	s9,52(sp)
a0000108:	00058c13          	mv	s8,a1
a000010c:	00060b13          	mv	s6,a2
a0000110:	00050413          	mv	s0,a0
a0000114:	000b0613          	mv	a2,s6
a0000118:	000c0593          	mv	a1,s8
a000011c:	00040513          	mv	a0,s0
a0000120:	f09ff0ef          	jal	a0000028 <partition>
a0000124:	00a12023          	sw	a0,0(sp)
a0000128:	fff50c93          	addi	s9,a0,-1
a000012c:	199c5863          	bge	s8,s9,a00002bc <quick_sort+0x1d0>
a0000130:	04912a23          	sw	s1,84(sp)
a0000134:	05212823          	sw	s2,80(sp)
a0000138:	05312623          	sw	s3,76(sp)
a000013c:	03a12823          	sw	s10,48(sp)
a0000140:	03b12623          	sw	s11,44(sp)
a0000144:	000c8613          	mv	a2,s9
a0000148:	000c0593          	mv	a1,s8
a000014c:	00040513          	mv	a0,s0
a0000150:	ed9ff0ef          	jal	a0000028 <partition>
a0000154:	00a12223          	sw	a0,4(sp)
a0000158:	fff50d13          	addi	s10,a0,-1
a000015c:	15ac5063          	bge	s8,s10,a000029c <quick_sort+0x1b0>
a0000160:	000d0613          	mv	a2,s10
a0000164:	000c0593          	mv	a1,s8
a0000168:	00040513          	mv	a0,s0
a000016c:	ebdff0ef          	jal	a0000028 <partition>
a0000170:	00a12423          	sw	a0,8(sp)
a0000174:	fff50d93          	addi	s11,a0,-1
a0000178:	11bc5c63          	bge	s8,s11,a0000290 <quick_sort+0x1a4>
a000017c:	000d8613          	mv	a2,s11
a0000180:	000c0593          	mv	a1,s8
a0000184:	00040513          	mv	a0,s0
a0000188:	ea1ff0ef          	jal	a0000028 <partition>
a000018c:	00a12623          	sw	a0,12(sp)
a0000190:	fff50993          	addi	s3,a0,-1
a0000194:	0f3c5863          	bge	s8,s3,a0000284 <quick_sort+0x198>
a0000198:	00098613          	mv	a2,s3
a000019c:	000c0593          	mv	a1,s8
a00001a0:	00040513          	mv	a0,s0
a00001a4:	e85ff0ef          	jal	a0000028 <partition>
a00001a8:	fff50913          	addi	s2,a0,-1
a00001ac:	00050493          	mv	s1,a0
a00001b0:	0d2c5663          	bge	s8,s2,a000027c <quick_sort+0x190>
a00001b4:	05412423          	sw	s4,72(sp)
a00001b8:	03712e23          	sw	s7,60(sp)
a00001bc:	00090613          	mv	a2,s2
a00001c0:	000c0593          	mv	a1,s8
a00001c4:	00040513          	mv	a0,s0
a00001c8:	e61ff0ef          	jal	a0000028 <partition>
a00001cc:	fff50b93          	addi	s7,a0,-1
a00001d0:	00050a13          	mv	s4,a0
a00001d4:	097c5c63          	bge	s8,s7,a000026c <quick_sort+0x180>
a00001d8:	05512223          	sw	s5,68(sp)
a00001dc:	000b8613          	mv	a2,s7
a00001e0:	000c0593          	mv	a1,s8
a00001e4:	00040513          	mv	a0,s0
a00001e8:	e41ff0ef          	jal	a0000028 <partition>
a00001ec:	00a12823          	sw	a0,16(sp)
a00001f0:	fff50a93          	addi	s5,a0,-1
a00001f4:	075c5463          	bge	s8,s5,a000025c <quick_sort+0x170>
a00001f8:	000a8613          	mv	a2,s5
a00001fc:	000c0593          	mv	a1,s8
a0000200:	00040513          	mv	a0,s0
a0000204:	e25ff0ef          	jal	a0000028 <partition>
a0000208:	fff50713          	addi	a4,a0,-1
a000020c:	00050793          	mv	a5,a0
a0000210:	04ec5263          	bge	s8,a4,a0000254 <quick_sort+0x168>
a0000214:	00070613          	mv	a2,a4
a0000218:	000c0593          	mv	a1,s8
a000021c:	00040513          	mv	a0,s0
a0000220:	00f12e23          	sw	a5,28(sp)
a0000224:	00e12c23          	sw	a4,24(sp)
a0000228:	e01ff0ef          	jal	a0000028 <partition>
a000022c:	fff50613          	addi	a2,a0,-1
a0000230:	00a12a23          	sw	a0,20(sp)
a0000234:	000c0593          	mv	a1,s8
a0000238:	00040513          	mv	a0,s0
a000023c:	eb1ff0ef          	jal	a00000ec <quick_sort>
a0000240:	01412683          	lw	a3,20(sp)
a0000244:	01812703          	lw	a4,24(sp)
a0000248:	01c12783          	lw	a5,28(sp)
a000024c:	00168c13          	addi	s8,a3,1
a0000250:	fcec42e3          	blt	s8,a4,a0000214 <quick_sort+0x128>
a0000254:	00178c13          	addi	s8,a5,1
a0000258:	fb5c40e3          	blt	s8,s5,a00001f8 <quick_sort+0x10c>
a000025c:	01012783          	lw	a5,16(sp)
a0000260:	00178c13          	addi	s8,a5,1
a0000264:	f77c4ce3          	blt	s8,s7,a00001dc <quick_sort+0xf0>
a0000268:	04412a83          	lw	s5,68(sp)
a000026c:	001a0c13          	addi	s8,s4,1
a0000270:	f52c46e3          	blt	s8,s2,a00001bc <quick_sort+0xd0>
a0000274:	04812a03          	lw	s4,72(sp)
a0000278:	03c12b83          	lw	s7,60(sp)
a000027c:	00148c13          	addi	s8,s1,1
a0000280:	f13c4ce3          	blt	s8,s3,a0000198 <quick_sort+0xac>
a0000284:	00c12783          	lw	a5,12(sp)
a0000288:	00178c13          	addi	s8,a5,1
a000028c:	efbc48e3          	blt	s8,s11,a000017c <quick_sort+0x90>
a0000290:	00812783          	lw	a5,8(sp)
a0000294:	00178c13          	addi	s8,a5,1
a0000298:	edac44e3          	blt	s8,s10,a0000160 <quick_sort+0x74>
a000029c:	00412783          	lw	a5,4(sp)
a00002a0:	00178c13          	addi	s8,a5,1
a00002a4:	eb9c40e3          	blt	s8,s9,a0000144 <quick_sort+0x58>
a00002a8:	05412483          	lw	s1,84(sp)
a00002ac:	05012903          	lw	s2,80(sp)
a00002b0:	04c12983          	lw	s3,76(sp)
a00002b4:	03012d03          	lw	s10,48(sp)
a00002b8:	02c12d83          	lw	s11,44(sp)
a00002bc:	00012783          	lw	a5,0(sp)
a00002c0:	00178c13          	addi	s8,a5,1
a00002c4:	e56c48e3          	blt	s8,s6,a0000114 <quick_sort+0x28>
a00002c8:	05c12083          	lw	ra,92(sp)
a00002cc:	05812403          	lw	s0,88(sp)
a00002d0:	04012b03          	lw	s6,64(sp)
a00002d4:	03812c03          	lw	s8,56(sp)
a00002d8:	03412c83          	lw	s9,52(sp)
a00002dc:	06010113          	addi	sp,sp,96
a00002e0:	00008067          	ret
a00002e4:	00008067          	ret

a00002e8 <main>:
a00002e8:	fe010113          	addi	sp,sp,-32
a00002ec:	00912a23          	sw	s1,20(sp)
a00002f0:	01300613          	li	a2,19
a00002f4:	00000593          	li	a1,0
a00002f8:	00000517          	auipc	a0,0x0
a00002fc:	0e450513          	addi	a0,a0,228 # a00003dc <a>
a0000300:	00000497          	auipc	s1,0x0
a0000304:	0dc48493          	addi	s1,s1,220 # a00003dc <a>
a0000308:	00812c23          	sw	s0,24(sp)
a000030c:	01212823          	sw	s2,16(sp)
a0000310:	01312623          	sw	s3,12(sp)
a0000314:	00112e23          	sw	ra,28(sp)
a0000318:	00048913          	mv	s2,s1
a000031c:	dd1ff0ef          	jal	a00000ec <quick_sort>
a0000320:	00000413          	li	s0,0
a0000324:	01400993          	li	s3,20
a0000328:	00092503          	lw	a0,0(s2)
a000032c:	00490913          	addi	s2,s2,4
a0000330:	40850533          	sub	a0,a0,s0
a0000334:	00153513          	seqz	a0,a0
a0000338:	00140413          	addi	s0,s0,1
a000033c:	cd5ff0ef          	jal	a0000010 <check>
a0000340:	ff3414e3          	bne	s0,s3,a0000328 <main+0x40>
a0000344:	00100513          	li	a0,1
a0000348:	cc9ff0ef          	jal	a0000010 <check>
a000034c:	01300613          	li	a2,19
a0000350:	00000593          	li	a1,0
a0000354:	00000517          	auipc	a0,0x0
a0000358:	08850513          	addi	a0,a0,136 # a00003dc <a>
a000035c:	d91ff0ef          	jal	a00000ec <quick_sort>
a0000360:	00000413          	li	s0,0
a0000364:	01400913          	li	s2,20
a0000368:	0004a503          	lw	a0,0(s1)
a000036c:	00448493          	addi	s1,s1,4
a0000370:	40850533          	sub	a0,a0,s0
a0000374:	00153513          	seqz	a0,a0
a0000378:	00140413          	addi	s0,s0,1
a000037c:	c95ff0ef          	jal	a0000010 <check>
a0000380:	ff2414e3          	bne	s0,s2,a0000368 <main+0x80>
a0000384:	00100513          	li	a0,1
a0000388:	c89ff0ef          	jal	a0000010 <check>
a000038c:	01c12083          	lw	ra,28(sp)
a0000390:	01812403          	lw	s0,24(sp)
a0000394:	01412483          	lw	s1,20(sp)
a0000398:	01012903          	lw	s2,16(sp)
a000039c:	00c12983          	lw	s3,12(sp)
a00003a0:	00000513          	li	a0,0
a00003a4:	02010113          	addi	sp,sp,32
a00003a8:	00008067          	ret

a00003ac <halt>:
a00003ac:	00050513          	mv	a0,a0
a00003b0:	00100073          	ebreak
a00003b4:	0000006f          	j	a00003b4 <halt+0x8>

a00003b8 <_trm_init>:
a00003b8:	ff010113          	addi	sp,sp,-16
a00003bc:	00000517          	auipc	a0,0x0
a00003c0:	01c50513          	addi	a0,a0,28 # a00003d8 <_etext>
a00003c4:	00112623          	sw	ra,12(sp)
a00003c8:	f21ff0ef          	jal	a00002e8 <main>
a00003cc:	00050513          	mv	a0,a0
a00003d0:	00100073          	ebreak
a00003d4:	0000006f          	j	a00003d4 <_trm_init+0x1c>
