
/home/romeo/ysyx-workbench/am-kernels/tests/cpu-tests/build/recursion-riscv32-nemu.elf:     file format elf32-littleriscv


Disassembly of section .text:

a0000000 <_start>:
a0000000:	00000413          	li	s0,0
a0000004:	00009117          	auipc	sp,0x9
a0000008:	ffc10113          	addi	sp,sp,-4 # a0009000 <_end>
a000000c:	24c000ef          	jal	a0000258 <_trm_init>

a0000010 <f0>:
a0000010:	00000797          	auipc	a5,0x0
a0000014:	28878793          	addi	a5,a5,648 # a0000298 <lvl>
a0000018:	0007a703          	lw	a4,0(a5)
a000001c:	00b75463          	bge	a4,a1,a0000024 <f0+0x14>
a0000020:	00b7a023          	sw	a1,0(a5)
a0000024:	00000717          	auipc	a4,0x0
a0000028:	27870713          	addi	a4,a4,632 # a000029c <rec>
a000002c:	00072783          	lw	a5,0(a4)
a0000030:	00178793          	addi	a5,a5,1
a0000034:	00f72023          	sw	a5,0(a4)
a0000038:	00a05e63          	blez	a0,a0000054 <f0+0x44>
a000003c:	00300793          	li	a5,3
a0000040:	02f54533          	div	a0,a0,a5
a0000044:	00158593          	addi	a1,a1,1
a0000048:	00000797          	auipc	a5,0x0
a000004c:	24c7a783          	lw	a5,588(a5) # a0000294 <func+0xc>
a0000050:	00078067          	jr	a5
a0000054:	00100513          	li	a0,1
a0000058:	00008067          	ret

a000005c <f1>:
a000005c:	00000797          	auipc	a5,0x0
a0000060:	23c78793          	addi	a5,a5,572 # a0000298 <lvl>
a0000064:	0007a703          	lw	a4,0(a5)
a0000068:	00b75463          	bge	a4,a1,a0000070 <f1+0x14>
a000006c:	00b7a023          	sw	a1,0(a5)
a0000070:	00000717          	auipc	a4,0x0
a0000074:	22c70713          	addi	a4,a4,556 # a000029c <rec>
a0000078:	00072783          	lw	a5,0(a4)
a000007c:	00178793          	addi	a5,a5,1
a0000080:	00f72023          	sw	a5,0(a4)
a0000084:	00a05c63          	blez	a0,a000009c <f1+0x40>
a0000088:	00158593          	addi	a1,a1,1
a000008c:	fff50513          	addi	a0,a0,-1
a0000090:	00000797          	auipc	a5,0x0
a0000094:	1f87a783          	lw	a5,504(a5) # a0000288 <func>
a0000098:	00078067          	jr	a5
a000009c:	00100513          	li	a0,1
a00000a0:	00008067          	ret

a00000a4 <f2>:
a00000a4:	00000717          	auipc	a4,0x0
a00000a8:	1f470713          	addi	a4,a4,500 # a0000298 <lvl>
a00000ac:	00072683          	lw	a3,0(a4)
a00000b0:	00050793          	mv	a5,a0
a00000b4:	00b6d463          	bge	a3,a1,a00000bc <f2+0x18>
a00000b8:	00b72023          	sw	a1,0(a4)
a00000bc:	00000697          	auipc	a3,0x0
a00000c0:	1e068693          	addi	a3,a3,480 # a000029c <rec>
a00000c4:	0006a703          	lw	a4,0(a3)
a00000c8:	00100513          	li	a0,1
a00000cc:	00170713          	addi	a4,a4,1
a00000d0:	00e6a023          	sw	a4,0(a3)
a00000d4:	02f05863          	blez	a5,a0000104 <f2+0x60>
a00000d8:	ff010113          	addi	sp,sp,-16
a00000dc:	00112623          	sw	ra,12(sp)
a00000e0:	00078513          	mv	a0,a5
a00000e4:	00158593          	addi	a1,a1,1
a00000e8:	00000797          	auipc	a5,0x0
a00000ec:	1a47a783          	lw	a5,420(a5) # a000028c <func+0x4>
a00000f0:	000780e7          	jalr	a5
a00000f4:	00c12083          	lw	ra,12(sp)
a00000f8:	00950513          	addi	a0,a0,9
a00000fc:	01010113          	addi	sp,sp,16
a0000100:	00008067          	ret
a0000104:	00008067          	ret

a0000108 <f3>:
a0000108:	00000717          	auipc	a4,0x0
a000010c:	19070713          	addi	a4,a4,400 # a0000298 <lvl>
a0000110:	00072683          	lw	a3,0(a4)
a0000114:	00050793          	mv	a5,a0
a0000118:	00b6d463          	bge	a3,a1,a0000120 <f3+0x18>
a000011c:	00b72023          	sw	a1,0(a4)
a0000120:	00000697          	auipc	a3,0x0
a0000124:	17c68693          	addi	a3,a3,380 # a000029c <rec>
a0000128:	0006a703          	lw	a4,0(a3)
a000012c:	00100513          	li	a0,1
a0000130:	00170713          	addi	a4,a4,1
a0000134:	00e6a023          	sw	a4,0(a3)
a0000138:	06f05c63          	blez	a5,a00001b0 <f3+0xa8>
a000013c:	ff010113          	addi	sp,sp,-16
a0000140:	01212023          	sw	s2,0(sp)
a0000144:	00000917          	auipc	s2,0x0
a0000148:	14490913          	addi	s2,s2,324 # a0000288 <func>
a000014c:	00892703          	lw	a4,8(s2)
a0000150:	00812423          	sw	s0,8(sp)
a0000154:	00912223          	sw	s1,4(sp)
a0000158:	00158413          	addi	s0,a1,1
a000015c:	4017d493          	srai	s1,a5,0x1
a0000160:	00112623          	sw	ra,12(sp)
a0000164:	00040593          	mv	a1,s0
a0000168:	00048513          	mv	a0,s1
a000016c:	000700e7          	jalr	a4
a0000170:	00892703          	lw	a4,8(s2)
a0000174:	00050793          	mv	a5,a0
a0000178:	00040593          	mv	a1,s0
a000017c:	00048513          	mv	a0,s1
a0000180:	00078413          	mv	s0,a5
a0000184:	000700e7          	jalr	a4
a0000188:	00141793          	slli	a5,s0,0x1
a000018c:	00c12083          	lw	ra,12(sp)
a0000190:	008787b3          	add	a5,a5,s0
a0000194:	00812403          	lw	s0,8(sp)
a0000198:	00151513          	slli	a0,a0,0x1
a000019c:	00412483          	lw	s1,4(sp)
a00001a0:	00012903          	lw	s2,0(sp)
a00001a4:	00a78533          	add	a0,a5,a0
a00001a8:	01010113          	addi	sp,sp,16
a00001ac:	00008067          	ret
a00001b0:	00008067          	ret

a00001b4 <check>:
a00001b4:	00050463          	beqz	a0,a00001bc <check+0x8>
a00001b8:	00008067          	ret
a00001bc:	ff010113          	addi	sp,sp,-16
a00001c0:	00100513          	li	a0,1
a00001c4:	00112623          	sw	ra,12(sp)
a00001c8:	084000ef          	jal	a000024c <halt>

a00001cc <main>:
a00001cc:	ff010113          	addi	sp,sp,-16
a00001d0:	00004537          	lui	a0,0x4
a00001d4:	00112623          	sw	ra,12(sp)
a00001d8:	00812423          	sw	s0,8(sp)
a00001dc:	00000593          	li	a1,0
a00001e0:	00000797          	auipc	a5,0x0
a00001e4:	0a87a783          	lw	a5,168(a5) # a0000288 <func>
a00001e8:	82350513          	addi	a0,a0,-2013 # 3823 <_entry_offset+0x3823>
a00001ec:	000780e7          	jalr	a5
a00001f0:	00000417          	auipc	s0,0x0
a00001f4:	08c40413          	addi	s0,s0,140 # a000027c <ans>
a00001f8:	00042783          	lw	a5,0(s0)
a00001fc:	40a78533          	sub	a0,a5,a0
a0000200:	00153513          	seqz	a0,a0
a0000204:	fb1ff0ef          	jal	a00001b4 <check>
a0000208:	00442503          	lw	a0,4(s0)
a000020c:	00000797          	auipc	a5,0x0
a0000210:	0907a783          	lw	a5,144(a5) # a000029c <rec>
a0000214:	40f50533          	sub	a0,a0,a5
a0000218:	00153513          	seqz	a0,a0
a000021c:	f99ff0ef          	jal	a00001b4 <check>
a0000220:	00842503          	lw	a0,8(s0)
a0000224:	00000797          	auipc	a5,0x0
a0000228:	0747a783          	lw	a5,116(a5) # a0000298 <lvl>
a000022c:	40f50533          	sub	a0,a0,a5
a0000230:	00153513          	seqz	a0,a0
a0000234:	f81ff0ef          	jal	a00001b4 <check>
a0000238:	00c12083          	lw	ra,12(sp)
a000023c:	00812403          	lw	s0,8(sp)
a0000240:	00000513          	li	a0,0
a0000244:	01010113          	addi	sp,sp,16
a0000248:	00008067          	ret

a000024c <halt>:
a000024c:	00050513          	mv	a0,a0
a0000250:	00100073          	ebreak
a0000254:	0000006f          	j	a0000254 <halt+0x8>

a0000258 <_trm_init>:
a0000258:	ff010113          	addi	sp,sp,-16
a000025c:	00000517          	auipc	a0,0x0
a0000260:	01c50513          	addi	a0,a0,28 # a0000278 <_etext>
a0000264:	00112623          	sw	ra,12(sp)
a0000268:	f65ff0ef          	jal	a00001cc <main>
a000026c:	00050513          	mv	a0,a0
a0000270:	00100073          	ebreak
a0000274:	0000006f          	j	a0000274 <_trm_init+0x1c>
