
/home/romeo/ysyx-workbench/am-kernels/tests/cpu-tests/build/hello-str-riscv32-briey.elf:     file format elf32-littleriscv


Disassembly of section .text:

80000000 <_start>:
80000000:	00000413          	li	s0,0
80000004:	00019117          	auipc	sp,0x19
80000008:	ffc10113          	addi	sp,sp,-4 # 80019000 <_end>
8000000c:	118000ef          	jal	80000124 <_trm_init>

80000010 <check>:
80000010:	00050463          	beqz	a0,80000018 <check+0x8>
80000014:	00008067          	ret
80000018:	ff010113          	addi	sp,sp,-16
8000001c:	00100513          	li	a0,1
80000020:	00112623          	sw	ra,12(sp)
80000024:	0f4000ef          	jal	80000118 <halt>

80000028 <main>:
80000028:	ff010113          	addi	sp,sp,-16
8000002c:	00000617          	auipc	a2,0x0
80000030:	47c60613          	addi	a2,a2,1148 # 800004a8 <_etext>
80000034:	00000597          	auipc	a1,0x0
80000038:	48458593          	addi	a1,a1,1156 # 800004b8 <_etext+0x10>
8000003c:	00000517          	auipc	a0,0x0
80000040:	51c50513          	addi	a0,a0,1308 # 80000558 <buf>
80000044:	00112623          	sw	ra,12(sp)
80000048:	00812423          	sw	s0,8(sp)
8000004c:	00912223          	sw	s1,4(sp)
80000050:	414000ef          	jal	80000464 <sprintf>
80000054:	00000597          	auipc	a1,0x0
80000058:	45458593          	addi	a1,a1,1108 # 800004a8 <_etext>
8000005c:	00000517          	auipc	a0,0x0
80000060:	4fc50513          	addi	a0,a0,1276 # 80000558 <buf>
80000064:	0e0000ef          	jal	80000144 <strcmp>
80000068:	00153513          	seqz	a0,a0
8000006c:	fa5ff0ef          	jal	80000010 <check>
80000070:	00200713          	li	a4,2
80000074:	00100693          	li	a3,1
80000078:	00100613          	li	a2,1
8000007c:	00000597          	auipc	a1,0x0
80000080:	44058593          	addi	a1,a1,1088 # 800004bc <_etext+0x14>
80000084:	00000517          	auipc	a0,0x0
80000088:	4d450513          	addi	a0,a0,1236 # 80000558 <buf>
8000008c:	3d8000ef          	jal	80000464 <sprintf>
80000090:	00000597          	auipc	a1,0x0
80000094:	43c58593          	addi	a1,a1,1084 # 800004cc <_etext+0x24>
80000098:	00000517          	auipc	a0,0x0
8000009c:	4c050513          	addi	a0,a0,1216 # 80000558 <buf>
800000a0:	0a4000ef          	jal	80000144 <strcmp>
800000a4:	00153513          	seqz	a0,a0
800000a8:	f69ff0ef          	jal	80000010 <check>
800000ac:	00c00713          	li	a4,12
800000b0:	00a00693          	li	a3,10
800000b4:	00200613          	li	a2,2
800000b8:	00000597          	auipc	a1,0x0
800000bc:	40458593          	addi	a1,a1,1028 # 800004bc <_etext+0x14>
800000c0:	00000517          	auipc	a0,0x0
800000c4:	49850513          	addi	a0,a0,1176 # 80000558 <buf>
800000c8:	39c000ef          	jal	80000464 <sprintf>
800000cc:	00000597          	auipc	a1,0x0
800000d0:	40c58593          	addi	a1,a1,1036 # 800004d8 <_etext+0x30>
800000d4:	00000517          	auipc	a0,0x0
800000d8:	48450513          	addi	a0,a0,1156 # 80000558 <buf>
800000dc:	068000ef          	jal	80000144 <strcmp>
800000e0:	00153513          	seqz	a0,a0
800000e4:	f2dff0ef          	jal	80000010 <check>
800000e8:	00000497          	auipc	s1,0x0
800000ec:	40048493          	addi	s1,s1,1024 # 800004e8 <_etext+0x40>
800000f0:	00000417          	auipc	s0,0x0
800000f4:	3fc40413          	addi	s0,s0,1020 # 800004ec <_etext+0x44>
800000f8:	00048513          	mv	a0,s1
800000fc:	2e8000ef          	jal	800003e4 <printf>
80000100:	00040513          	mv	a0,s0
80000104:	2e0000ef          	jal	800003e4 <printf>
80000108:	ff1ff06f          	j	800000f8 <main+0xd0>

8000010c <putch>:
8000010c:	a40007b7          	lui	a5,0xa4000
80000110:	00a78023          	sb	a0,0(a5) # a4000000 <_end+0x23fe7000>
80000114:	00008067          	ret

80000118 <halt>:
80000118:	00050513          	mv	a0,a0
8000011c:	00100073          	ebreak
80000120:	0000006f          	j	80000120 <halt+0x8>

80000124 <_trm_init>:
80000124:	ff010113          	addi	sp,sp,-16
80000128:	00000517          	auipc	a0,0x0
8000012c:	42c50513          	addi	a0,a0,1068 # 80000554 <mainargs>
80000130:	00112623          	sw	ra,12(sp)
80000134:	ef5ff0ef          	jal	80000028 <main>
80000138:	00050513          	mv	a0,a0
8000013c:	00100073          	ebreak
80000140:	0000006f          	j	80000140 <_trm_init+0x1c>

80000144 <strcmp>:
80000144:	02050e63          	beqz	a0,80000180 <strcmp+0x3c>
80000148:	02058c63          	beqz	a1,80000180 <strcmp+0x3c>
8000014c:	00054783          	lbu	a5,0(a0)
80000150:	0005c703          	lbu	a4,0(a1)
80000154:	00e79e63          	bne	a5,a4,80000170 <strcmp+0x2c>
80000158:	02078063          	beqz	a5,80000178 <strcmp+0x34>
8000015c:	00154783          	lbu	a5,1(a0)
80000160:	0015c703          	lbu	a4,1(a1)
80000164:	00150513          	addi	a0,a0,1
80000168:	00158593          	addi	a1,a1,1
8000016c:	fee786e3          	beq	a5,a4,80000158 <strcmp+0x14>
80000170:	40e78533          	sub	a0,a5,a4
80000174:	00008067          	ret
80000178:	00000513          	li	a0,0
8000017c:	00008067          	ret
80000180:	ff010113          	addi	sp,sp,-16
80000184:	0b300613          	li	a2,179
80000188:	00000597          	auipc	a1,0x0
8000018c:	37058593          	addi	a1,a1,880 # 800004f8 <_etext+0x50>
80000190:	00000517          	auipc	a0,0x0
80000194:	3a850513          	addi	a0,a0,936 # 80000538 <_etext+0x90>
80000198:	00112623          	sw	ra,12(sp)
8000019c:	248000ef          	jal	800003e4 <printf>
800001a0:	00100513          	li	a0,1
800001a4:	f75ff0ef          	jal	80000118 <halt>

800001a8 <vsnprintf>:
800001a8:	00064783          	lbu	a5,0(a2)
800001ac:	00050893          	mv	a7,a0
800001b0:	22078463          	beqz	a5,800003d8 <vsnprintf+0x230>
800001b4:	fff58313          	addi	t1,a1,-1
800001b8:	00000513          	li	a0,0
800001bc:	0a030463          	beqz	t1,80000264 <vsnprintf+0xbc>
800001c0:	00000813          	li	a6,0
800001c4:	02500e93          	li	t4,37
800001c8:	06400f13          	li	t5,100
800001cc:	07300f93          	li	t6,115
800001d0:	0280006f          	j	800001f8 <vsnprintf+0x50>
800001d4:	01088833          	add	a6,a7,a6
800001d8:	00150513          	addi	a0,a0,1
800001dc:	00f80023          	sb	a5,0(a6)
800001e0:	00060713          	mv	a4,a2
800001e4:	00174783          	lbu	a5,1(a4)
800001e8:	00170613          	addi	a2,a4,1
800001ec:	04078e63          	beqz	a5,80000248 <vsnprintf+0xa0>
800001f0:	00050813          	mv	a6,a0
800001f4:	04657a63          	bgeu	a0,t1,80000248 <vsnprintf+0xa0>
800001f8:	00160713          	addi	a4,a2,1
800001fc:	fdd79ce3          	bne	a5,t4,800001d4 <vsnprintf+0x2c>
80000200:	00164e03          	lbu	t3,1(a2)
80000204:	fc0e08e3          	beqz	t3,800001d4 <vsnprintf+0x2c>
80000208:	07ee0263          	beq	t3,t5,8000026c <vsnprintf+0xc4>
8000020c:	05fe1263          	bne	t3,t6,80000250 <vsnprintf+0xa8>
80000210:	0006ae03          	lw	t3,0(a3)
80000214:	00468693          	addi	a3,a3,4
80000218:	000e4603          	lbu	a2,0(t3)
8000021c:	fc0604e3          	beqz	a2,800001e4 <vsnprintf+0x3c>
80000220:	00050293          	mv	t0,a0
80000224:	fc6570e3          	bgeu	a0,t1,800001e4 <vsnprintf+0x3c>
80000228:	00150513          	addi	a0,a0,1
8000022c:	00a88833          	add	a6,a7,a0
80000230:	405507b3          	sub	a5,a0,t0
80000234:	fec80fa3          	sb	a2,-1(a6)
80000238:	00fe07b3          	add	a5,t3,a5
8000023c:	0007c603          	lbu	a2,0(a5)
80000240:	fa0602e3          	beqz	a2,800001e4 <vsnprintf+0x3c>
80000244:	fe6562e3          	bltu	a0,t1,80000228 <vsnprintf+0x80>
80000248:	00059c63          	bnez	a1,80000260 <vsnprintf+0xb8>
8000024c:	00008067          	ret
80000250:	01088833          	add	a6,a7,a6
80000254:	00150513          	addi	a0,a0,1
80000258:	01c80023          	sb	t3,0(a6)
8000025c:	f89ff06f          	j	800001e4 <vsnprintf+0x3c>
80000260:	00a888b3          	add	a7,a7,a0
80000264:	00088023          	sb	zero,0(a7)
80000268:	00008067          	ret
8000026c:	fd010113          	addi	sp,sp,-48
80000270:	02812623          	sw	s0,44(sp)
80000274:	02912423          	sw	s1,40(sp)
80000278:	0006ae03          	lw	t3,0(a3)
8000027c:	00468693          	addi	a3,a3,4
80000280:	000e5c63          	bgez	t3,80000298 <vsnprintf+0xf0>
80000284:	01088833          	add	a6,a7,a6
80000288:	02d00793          	li	a5,45
8000028c:	00150513          	addi	a0,a0,1
80000290:	00f80023          	sb	a5,0(a6)
80000294:	41c00e33          	neg	t3,t3
80000298:	000e0793          	mv	a5,t3
8000029c:	00000613          	li	a2,0
800002a0:	00a00293          	li	t0,10
800002a4:	0257c7b3          	div	a5,a5,t0
800002a8:	00060813          	mv	a6,a2
800002ac:	00160613          	addi	a2,a2,1
800002b0:	fe079ae3          	bnez	a5,800002a4 <vsnprintf+0xfc>
800002b4:	00050493          	mv	s1,a0
800002b8:	08657663          	bgeu	a0,t1,80000344 <vsnprintf+0x19c>
800002bc:	00c10293          	addi	t0,sp,12
800002c0:	010287b3          	add	a5,t0,a6
800002c4:	00a00393          	li	t2,10
800002c8:	027e6633          	rem	a2,t3,t2
800002cc:	00078413          	mv	s0,a5
800002d0:	fff78793          	addi	a5,a5,-1
800002d4:	03060613          	addi	a2,a2,48
800002d8:	00c780a3          	sb	a2,1(a5)
800002dc:	027e4e33          	div	t3,t3,t2
800002e0:	fe8294e3          	bne	t0,s0,800002c8 <vsnprintf+0x120>
800002e4:	00150793          	addi	a5,a0,1
800002e8:	01078833          	add	a6,a5,a6
800002ec:	00c0006f          	j	800002f8 <vsnprintf+0x150>
800002f0:	0467fa63          	bgeu	a5,t1,80000344 <vsnprintf+0x19c>
800002f4:	00178793          	addi	a5,a5,1
800002f8:	40978633          	sub	a2,a5,s1
800002fc:	00c28633          	add	a2,t0,a2
80000300:	fff64e03          	lbu	t3,-1(a2)
80000304:	00f88633          	add	a2,a7,a5
80000308:	00078513          	mv	a0,a5
8000030c:	ffc60fa3          	sb	t3,-1(a2)
80000310:	ff0790e3          	bne	a5,a6,800002f0 <vsnprintf+0x148>
80000314:	00174783          	lbu	a5,1(a4)
80000318:	00170613          	addi	a2,a4,1
8000031c:	02079a63          	bnez	a5,80000350 <vsnprintf+0x1a8>
80000320:	0a059063          	bnez	a1,800003c0 <vsnprintf+0x218>
80000324:	02c12403          	lw	s0,44(sp)
80000328:	02812483          	lw	s1,40(sp)
8000032c:	03010113          	addi	sp,sp,48
80000330:	00008067          	ret
80000334:	01088833          	add	a6,a7,a6
80000338:	00150513          	addi	a0,a0,1
8000033c:	00f80023          	sb	a5,0(a6)
80000340:	00060713          	mv	a4,a2
80000344:	00174783          	lbu	a5,1(a4)
80000348:	00170613          	addi	a2,a4,1
8000034c:	fc078ae3          	beqz	a5,80000320 <vsnprintf+0x178>
80000350:	00050813          	mv	a6,a0
80000354:	fc6576e3          	bgeu	a0,t1,80000320 <vsnprintf+0x178>
80000358:	00160713          	addi	a4,a2,1
8000035c:	fdd79ce3          	bne	a5,t4,80000334 <vsnprintf+0x18c>
80000360:	00164e03          	lbu	t3,1(a2)
80000364:	fc0e08e3          	beqz	t3,80000334 <vsnprintf+0x18c>
80000368:	f1ee08e3          	beq	t3,t5,80000278 <vsnprintf+0xd0>
8000036c:	05fe1263          	bne	t3,t6,800003b0 <vsnprintf+0x208>
80000370:	0006ae03          	lw	t3,0(a3)
80000374:	00468693          	addi	a3,a3,4
80000378:	000e4603          	lbu	a2,0(t3)
8000037c:	fc0604e3          	beqz	a2,80000344 <vsnprintf+0x19c>
80000380:	00050293          	mv	t0,a0
80000384:	fc6570e3          	bgeu	a0,t1,80000344 <vsnprintf+0x19c>
80000388:	00150513          	addi	a0,a0,1
8000038c:	00a88833          	add	a6,a7,a0
80000390:	405507b3          	sub	a5,a0,t0
80000394:	fec80fa3          	sb	a2,-1(a6)
80000398:	00fe07b3          	add	a5,t3,a5
8000039c:	0007c603          	lbu	a2,0(a5)
800003a0:	fa0602e3          	beqz	a2,80000344 <vsnprintf+0x19c>
800003a4:	fe6562e3          	bltu	a0,t1,80000388 <vsnprintf+0x1e0>
800003a8:	f6058ee3          	beqz	a1,80000324 <vsnprintf+0x17c>
800003ac:	0140006f          	j	800003c0 <vsnprintf+0x218>
800003b0:	01088833          	add	a6,a7,a6
800003b4:	00150513          	addi	a0,a0,1
800003b8:	01c80023          	sb	t3,0(a6)
800003bc:	f89ff06f          	j	80000344 <vsnprintf+0x19c>
800003c0:	00a888b3          	add	a7,a7,a0
800003c4:	00088023          	sb	zero,0(a7)
800003c8:	02c12403          	lw	s0,44(sp)
800003cc:	02812483          	lw	s1,40(sp)
800003d0:	03010113          	addi	sp,sp,48
800003d4:	00008067          	ret
800003d8:	00000513          	li	a0,0
800003dc:	e60588e3          	beqz	a1,8000024c <vsnprintf+0xa4>
800003e0:	e81ff06f          	j	80000260 <vsnprintf+0xb8>

800003e4 <printf>:
800003e4:	ec010113          	addi	sp,sp,-320
800003e8:	12410313          	addi	t1,sp,292
800003ec:	12b12223          	sw	a1,292(sp)
800003f0:	12c12423          	sw	a2,296(sp)
800003f4:	12d12623          	sw	a3,300(sp)
800003f8:	00050613          	mv	a2,a0
800003fc:	00030693          	mv	a3,t1
80000400:	10000593          	li	a1,256
80000404:	01010513          	addi	a0,sp,16
80000408:	10912a23          	sw	s1,276(sp)
8000040c:	10112e23          	sw	ra,284(sp)
80000410:	12e12823          	sw	a4,304(sp)
80000414:	12f12a23          	sw	a5,308(sp)
80000418:	13012c23          	sw	a6,312(sp)
8000041c:	13112e23          	sw	a7,316(sp)
80000420:	00612623          	sw	t1,12(sp)
80000424:	d85ff0ef          	jal	800001a8 <vsnprintf>
80000428:	00050493          	mv	s1,a0
8000042c:	01014503          	lbu	a0,16(sp)
80000430:	02050063          	beqz	a0,80000450 <printf+0x6c>
80000434:	10812c23          	sw	s0,280(sp)
80000438:	01010413          	addi	s0,sp,16
8000043c:	cd1ff0ef          	jal	8000010c <putch>
80000440:	00144503          	lbu	a0,1(s0)
80000444:	00140413          	addi	s0,s0,1
80000448:	fe051ae3          	bnez	a0,8000043c <printf+0x58>
8000044c:	11812403          	lw	s0,280(sp)
80000450:	11c12083          	lw	ra,284(sp)
80000454:	00048513          	mv	a0,s1
80000458:	11412483          	lw	s1,276(sp)
8000045c:	14010113          	addi	sp,sp,320
80000460:	00008067          	ret

80000464 <sprintf>:
80000464:	fc010113          	addi	sp,sp,-64
80000468:	02810313          	addi	t1,sp,40
8000046c:	02c12423          	sw	a2,40(sp)
80000470:	02d12623          	sw	a3,44(sp)
80000474:	00058613          	mv	a2,a1
80000478:	00030693          	mv	a3,t1
8000047c:	fff00593          	li	a1,-1
80000480:	00112e23          	sw	ra,28(sp)
80000484:	02e12823          	sw	a4,48(sp)
80000488:	02f12a23          	sw	a5,52(sp)
8000048c:	03012c23          	sw	a6,56(sp)
80000490:	03112e23          	sw	a7,60(sp)
80000494:	00612623          	sw	t1,12(sp)
80000498:	d11ff0ef          	jal	800001a8 <vsnprintf>
8000049c:	01c12083          	lw	ra,28(sp)
800004a0:	04010113          	addi	sp,sp,64
800004a4:	00008067          	ret
