
/home/romeo/ysyx-workbench/am-kernels/tests/cpu-tests/build/mov-c-riscv32-nemu.elf:     file format elf32-littleriscv


Disassembly of section .text:

a0000000 <_start>:
a0000000:	00000413          	li	s0,0
a0000004:	00009117          	auipc	sp,0x9
a0000008:	ffc10113          	addi	sp,sp,-4 # a0009000 <_end>
a000000c:	100000ef          	jal	a000010c <_trm_init>

a0000010 <check>:
a0000010:	00050463          	beqz	a0,a0000018 <check+0x8>
a0000014:	00008067          	ret
a0000018:	ff010113          	addi	sp,sp,-16
a000001c:	00100513          	li	a0,1
a0000020:	00112623          	sw	ra,12(sp)
a0000024:	0dc000ef          	jal	a0000100 <halt>

a0000028 <main>:
a0000028:	ff010113          	addi	sp,sp,-16
a000002c:	00112623          	sw	ra,12(sp)
a0000030:	00812423          	sw	s0,8(sp)
a0000034:	00912223          	sw	s1,4(sp)
a0000038:	00000417          	auipc	s0,0x0
a000003c:	0f840413          	addi	s0,s0,248 # a0000130 <A>
a0000040:	00042023          	sw	zero,0(s0)
a0000044:	00100793          	li	a5,1
a0000048:	00f42223          	sw	a5,4(s0)
a000004c:	00200793          	li	a5,2
a0000050:	00f42423          	sw	a5,8(s0)
a0000054:	00300793          	li	a5,3
a0000058:	00f42623          	sw	a5,12(s0)
a000005c:	00400793          	li	a5,4
a0000060:	00f42823          	sw	a5,16(s0)
a0000064:	00c42783          	lw	a5,12(s0)
a0000068:	00000497          	auipc	s1,0x0
a000006c:	0f048493          	addi	s1,s1,240 # a0000158 <b>
a0000070:	00f4a023          	sw	a5,0(s1)
a0000074:	0004a783          	lw	a5,0(s1)
a0000078:	00f42a23          	sw	a5,20(s0)
a000007c:	00042503          	lw	a0,0(s0)
a0000080:	00153513          	seqz	a0,a0
a0000084:	f8dff0ef          	jal	a0000010 <check>
a0000088:	00442503          	lw	a0,4(s0)
a000008c:	fff50513          	addi	a0,a0,-1
a0000090:	00153513          	seqz	a0,a0
a0000094:	f7dff0ef          	jal	a0000010 <check>
a0000098:	00842503          	lw	a0,8(s0)
a000009c:	ffe50513          	addi	a0,a0,-2
a00000a0:	00153513          	seqz	a0,a0
a00000a4:	f6dff0ef          	jal	a0000010 <check>
a00000a8:	00c42503          	lw	a0,12(s0)
a00000ac:	ffd50513          	addi	a0,a0,-3
a00000b0:	00153513          	seqz	a0,a0
a00000b4:	f5dff0ef          	jal	a0000010 <check>
a00000b8:	01042503          	lw	a0,16(s0)
a00000bc:	ffc50513          	addi	a0,a0,-4
a00000c0:	00153513          	seqz	a0,a0
a00000c4:	f4dff0ef          	jal	a0000010 <check>
a00000c8:	0004a503          	lw	a0,0(s1)
a00000cc:	ffd50513          	addi	a0,a0,-3
a00000d0:	00153513          	seqz	a0,a0
a00000d4:	f3dff0ef          	jal	a0000010 <check>
a00000d8:	01442503          	lw	a0,20(s0)
a00000dc:	ffd50513          	addi	a0,a0,-3
a00000e0:	00153513          	seqz	a0,a0
a00000e4:	f2dff0ef          	jal	a0000010 <check>
a00000e8:	00c12083          	lw	ra,12(sp)
a00000ec:	00812403          	lw	s0,8(sp)
a00000f0:	00412483          	lw	s1,4(sp)
a00000f4:	00000513          	li	a0,0
a00000f8:	01010113          	addi	sp,sp,16
a00000fc:	00008067          	ret

a0000100 <halt>:
a0000100:	00050513          	mv	a0,a0
a0000104:	00100073          	ebreak
a0000108:	0000006f          	j	a0000108 <halt+0x8>

a000010c <_trm_init>:
a000010c:	ff010113          	addi	sp,sp,-16
a0000110:	00000517          	auipc	a0,0x0
a0000114:	01c50513          	addi	a0,a0,28 # a000012c <_etext>
a0000118:	00112623          	sw	ra,12(sp)
a000011c:	f0dff0ef          	jal	a0000028 <main>
a0000120:	00050513          	mv	a0,a0
a0000124:	00100073          	ebreak
a0000128:	0000006f          	j	a0000128 <_trm_init+0x1c>
