
/home/romeo/ysyx-workbench/am-kernels/tests/cpu-tests/build/to-lower-case-riscv32-nemu.elf:     file format elf32-littleriscv


Disassembly of section .text:

a0000000 <_start>:
a0000000:	00000413          	li	s0,0
a0000004:	00009117          	auipc	sp,0x9
a0000008:	ffc10113          	addi	sp,sp,-4 # a0009000 <_end>
a000000c:	0d8000ef          	jal	a00000e4 <_trm_init>

a0000010 <check>:
a0000010:	00050463          	beqz	a0,a0000018 <check+0x8>
a0000014:	00008067          	ret
a0000018:	ff010113          	addi	sp,sp,-16
a000001c:	00100513          	li	a0,1
a0000020:	00112623          	sw	ra,12(sp)
a0000024:	0b4000ef          	jal	a00000d8 <halt>

a0000028 <main>:
a0000028:	fe010113          	addi	sp,sp,-32
a000002c:	00812c23          	sw	s0,24(sp)
a0000030:	00912a23          	sw	s1,20(sp)
a0000034:	01212823          	sw	s2,16(sp)
a0000038:	01312623          	sw	s3,12(sp)
a000003c:	00112e23          	sw	ra,28(sp)
a0000040:	00000413          	li	s0,0
a0000044:	00000497          	auipc	s1,0x0
a0000048:	0c448493          	addi	s1,s1,196 # a0000108 <ans>
a000004c:	01900913          	li	s2,25
a0000050:	08000993          	li	s3,128
a0000054:	0ff47713          	zext.b	a4,s0
a0000058:	fbf70793          	addi	a5,a4,-65
a000005c:	02070513          	addi	a0,a4,32
a0000060:	0ff7f793          	zext.b	a5,a5
a0000064:	008486b3          	add	a3,s1,s0
a0000068:	0ff57513          	zext.b	a0,a0
a000006c:	02f96a63          	bltu	s2,a5,a00000a0 <main+0x78>
a0000070:	0006c783          	lbu	a5,0(a3)
a0000074:	00140413          	addi	s0,s0,1
a0000078:	40f50533          	sub	a0,a0,a5
a000007c:	00153513          	seqz	a0,a0
a0000080:	f91ff0ef          	jal	a0000010 <check>
a0000084:	0ff47713          	zext.b	a4,s0
a0000088:	fbf70793          	addi	a5,a4,-65
a000008c:	02070513          	addi	a0,a4,32
a0000090:	0ff7f793          	zext.b	a5,a5
a0000094:	008486b3          	add	a3,s1,s0
a0000098:	0ff57513          	zext.b	a0,a0
a000009c:	fcf97ae3          	bgeu	s2,a5,a0000070 <main+0x48>
a00000a0:	0006c503          	lbu	a0,0(a3)
a00000a4:	00140413          	addi	s0,s0,1
a00000a8:	40e50533          	sub	a0,a0,a4
a00000ac:	00153513          	seqz	a0,a0
a00000b0:	f61ff0ef          	jal	a0000010 <check>
a00000b4:	fb3410e3          	bne	s0,s3,a0000054 <main+0x2c>
a00000b8:	01c12083          	lw	ra,28(sp)
a00000bc:	01812403          	lw	s0,24(sp)
a00000c0:	01412483          	lw	s1,20(sp)
a00000c4:	01012903          	lw	s2,16(sp)
a00000c8:	00c12983          	lw	s3,12(sp)
a00000cc:	00000513          	li	a0,0
a00000d0:	02010113          	addi	sp,sp,32
a00000d4:	00008067          	ret

a00000d8 <halt>:
a00000d8:	00050513          	mv	a0,a0
a00000dc:	00100073          	ebreak
a00000e0:	0000006f          	j	a00000e0 <halt+0x8>

a00000e4 <_trm_init>:
a00000e4:	ff010113          	addi	sp,sp,-16
a00000e8:	00000517          	auipc	a0,0x0
a00000ec:	01c50513          	addi	a0,a0,28 # a0000104 <_etext>
a00000f0:	00112623          	sw	ra,12(sp)
a00000f4:	f35ff0ef          	jal	a0000028 <main>
a00000f8:	00050513          	mv	a0,a0
a00000fc:	00100073          	ebreak
a0000100:	0000006f          	j	a0000100 <_trm_init+0x1c>
